(ipytrain.dtree.naive_dtree
naive_dtree
p0
(dp1
S'label_data'
p2
(lp3
S'yes'
p4
ag4
ag4
aS'no'
p5
ag5
ag4
ag5
ag5
ag5
asS'tree'
p6
(dp7
I2
(dp8
I8
(dp9
I1
(dp10
I8
(dp11
I0
(dp12
I8
g5
sI7
g4
sssI7
g4
sssI7
g5
sssS'mat_data'
p13
(lp14
(lp15
I7
aI8
aI8
aa(lp16
I8
aI7
aI8
aa(lp17
I8
aI8
aI8
aa(lp18
I8
aI8
aI8
aa(lp19
I8
aI7
aI7
aa(lp20
I7
aI7
aI8
aa(lp21
I7
aI7
aI7
aa(lp22
I7
aI8
aI7
aa(lp23
I8
aI8
aI8
aasb.